Certificate:
    Data:
        Version: 3 (0x2)
        Serial Number: 4096 (0x1000)
        Signature Algorithm: md5WithRSAEncryption
        Issuer: C=US, ST=missouri, L=stl, O=KeyCorp, OU=MSD, CN=aiden/emailAddress=prattaiden8@gmail.com
        Validity
            Not Before: Mar 14 20:40:59 2024 GMT
            Not After : Mar 14 20:40:59 2025 GMT
        Subject: C=US, ST=missouri, O=KeyCorp, OU=MSD, CN=aidenServer/emailAddress=prattaiden8@gmail.com
        Subject Public Key Info:
            Public Key Algorithm: rsaEncryption
                Public-Key: (4096 bit)
                Modulus:
                    00:9c:55:19:7a:c8:a9:25:94:15:cc:0e:0e:4b:15:
                    b8:27:a8:fc:58:03:9e:b8:03:0a:5e:8a:4f:d7:03:
                    1c:7b:79:26:e2:c5:93:f7:92:39:61:20:0e:77:2d:
                    6d:c2:8a:3c:f2:1a:74:83:94:f3:a2:2a:66:9b:d7:
                    bd:57:ad:90:77:0e:6e:13:e5:36:72:b8:15:1f:0f:
                    77:bf:ff:c6:a2:8f:58:57:ab:ae:21:df:e6:8b:c5:
                    67:a7:fc:fc:ff:87:b1:47:95:d8:40:01:61:b7:f4:
                    45:ee:00:df:f5:dc:7d:99:56:64:65:68:4f:15:c0:
                    d6:f8:d4:3e:24:1d:69:f5:30:67:55:ff:a7:e1:c8:
                    14:55:bf:b2:5d:f2:80:0a:36:4c:4f:c2:a9:6b:e0:
                    45:f7:4f:d2:eb:3f:1a:db:12:b2:40:0e:dd:da:d7:
                    2a:84:f2:94:b0:34:ea:72:4b:96:fc:da:e6:bb:6d:
                    77:7a:fa:bc:45:82:1e:a1:77:18:54:af:fe:a0:fb:
                    86:c4:35:d1:77:62:d2:00:97:8c:a9:51:a2:ad:a3:
                    50:1e:0d:0d:92:26:a2:be:c5:47:7e:64:29:e4:ac:
                    80:33:19:a3:6d:7a:e4:3d:39:88:83:b5:f1:57:44:
                    e6:2d:8b:17:3d:cf:22:31:4c:7a:e5:14:f5:89:a8:
                    d3:ec:92:91:0b:c1:52:d8:88:d3:be:9b:19:25:e4:
                    6f:f7:51:45:73:38:21:d4:e0:d9:36:04:7c:f6:85:
                    71:22:8e:a2:ff:3d:87:61:0b:48:c1:f2:b1:23:59:
                    63:c9:7c:d1:a9:13:6f:6b:14:46:b2:2a:d5:42:c3:
                    27:d7:d7:c1:b1:a2:ee:ae:85:9f:5f:c3:a5:da:2a:
                    32:df:fe:b6:7a:1c:46:21:81:bf:65:36:db:9d:6b:
                    5c:5d:ae:4c:18:1d:9f:53:ff:1b:2b:06:70:6b:b3:
                    03:de:02:da:84:6d:f2:d5:38:31:3e:50:86:8d:1c:
                    96:63:fa:37:39:ab:7d:27:c6:0d:90:3b:4f:18:a7:
                    f1:d7:2b:5f:9d:e2:5c:26:92:dd:bf:08:b8:a8:4c:
                    0b:99:7b:0f:66:cd:9e:a4:58:e8:60:da:8e:bf:e4:
                    f9:a5:d9:10:fc:92:1f:da:55:35:38:a4:a9:fd:49:
                    d9:70:1b:47:06:34:b1:2c:90:41:5e:fc:c4:37:8b:
                    e0:0f:3a:9d:ec:36:4b:24:48:f2:9d:60:65:95:4c:
                    66:f5:6d:f5:74:3d:19:5f:3b:5b:47:ad:47:dd:b7:
                    4e:06:c4:8a:4b:11:e8:ad:32:a8:44:2e:27:9f:6b:
                    48:35:47:08:6b:77:0c:d0:c4:42:85:f0:8c:dd:e9:
                    44:c6:bb
                Exponent: 65537 (0x10001)
        X509v3 extensions:
            X509v3 Basic Constraints: 
                CA:FALSE
            Netscape Comment: 
                OpenSSL Generated Certificate
            X509v3 Subject Key Identifier: 
                36:57:16:55:77:59:38:0B:09:37:78:8E:B7:44:2E:23:9D:22:F2:F6
            X509v3 Authority Key Identifier: 
                keyid:04:2B:DC:64:F2:58:DC:EF:D0:41:90:1B:D5:C7:0E:8D:CB:ED:69:B2
                DirName:/C=US/ST=missouri/L=stl/O=KeyCorp/OU=MSD/CN=aiden/emailAddress=prattaiden8@gmail.com
                serial:F4:03:B3:DD:64:48:9D:59:DB:D8:43:2F:36:69:D1:F3:F0:50:F9
    Signature Algorithm: md5WithRSAEncryption
    Signature Value:
        03:77:6a:26:38:b1:79:54:b1:08:d2:cd:d1:9d:9d:52:25:46:
        e3:22:db:35:d1:87:29:ad:2c:7e:9c:0b:e0:1c:0c:43:29:b6:
        a2:80:f5:e0:50:f9:24:8a:9f:a3:ce:8e:5f:43:ed:d1:41:c3:
        61:17:9e:e7:93:cb:31:b0:be:de:86:8b:c3:73:aa:c9:66:fb:
        03:1c:99:5b:df:42:40:35:f9:e5:da:02:cc:fd:6c:23:c7:1b:
        98:b0:d6:42:d3:02:6d:1f:dc:0b:ff:03:00:c7:17:9b:ce:6f:
        3e:50:9e:2e:4a:81:0e:8a:5d:1a:01:f6:d5:dc:64:a8:c4:93:
        20:fa:6e:0b:61:02:0d:c7:e2:92:01:12:f7:89:8d:28:1d:17:
        e3:e8:44:ed:f7:27:ee:78:20:7c:1a:6b:a7:04:60:2d:c4:d6:
        7c:1c:e9:23:e1:d3:49:d7:25:17:45:d9:69:8f:54:1e:c5:3e:
        c9:80:3a:46:35:ff:bd:f5:d0:b8:e0:28:19:53:5d:a3:d0:14:
        1e:2b:04:57:9f:e4:d6:eb:a4:8f:83:0d:e9:81:58:45:9e:de:
        62:54:c1:a8:60:5e:15:e2:6e:59:9e:07:64:92:18:30:3c:62:
        82:de:84:f6:2c:9c:0b:57:7b:94:3d:84:c7:d5:ec:84:67:98:
        52:fb:8c:cc:df:94:65:19:34:64:7f:82:81:a8:2f:16:4f:51:
        eb:bb:93:9f:78:7e:be:37:46:cf:32:5e:4a:6e:73:26:24:16:
        24:fb:3e:25:7d:9b:9a:28:cd:42:31:f0:87:7e:10:c6:58:28:
        51:e0:81:30:6d:5c:4d:e7:7e:7a:15:f8:3f:11:a4:69:36:5a:
        5f:bc:e1:70:d6:c2:8d:e3:c6:da:1a:02:90:e5:8f:5a:e8:56:
        92:22:c1:af:86:bc:58:b6:9a:48:fc:90:6e:71:28:73:71:8b:
        91:55:1b:f9:b7:3f:0a:53:e9:62:41:54:00:16:65:99:d9:62:
        12:fd:39:11:b0:5c:d7:10:c0:8a:73:83:42:a5:cf:26:99:1b:
        48:19:7f:78:51:be:05:99:85:20:45:e7:c3:26:3a:ee:5b:9b:
        a0:0f:c9:94:53:20:0e:8c:b3:86:79:95:5a:34:67:f6:04:52:
        3e:3c:61:a1:f0:15:cd:7b:b2:5a:a3:ca:b2:51:4b:c6:db:64:
        85:fd:d4:a2:20:e4:ce:51:b2:c1:dd:44:17:8a:2f:15:2d:09:
        68:63:3c:4a:13:a5:a0:4f:a4:b9:50:68:54:ee:b6:42:ab:58:
        57:bc:55:16:94:88:d6:14:21:c2:e6:65:43:2f:46:39:d8:15:
        e1:61:29:3b:f5:54:0d:ad
-----BEGIN CERTIFICATE-----
MIIGojCCBIqgAwIBAgICEAAwDQYJKoZIhvcNAQEEBQAwgYQxCzAJBgNVBAYTAlVT
MREwDwYDVQQIDAhtaXNzb3VyaTEMMAoGA1UEBwwDc3RsMRAwDgYDVQQKDAdLZXlD
b3JwMQwwCgYDVQQLDANNU0QxDjAMBgNVBAMMBWFpZGVuMSQwIgYJKoZIhvcNAQkB
FhVwcmF0dGFpZGVuOEBnbWFpbC5jb20wHhcNMjQwMzE0MjA0MDU5WhcNMjUwMzE0
MjA0MDU5WjB8MQswCQYDVQQGEwJVUzERMA8GA1UECAwIbWlzc291cmkxEDAOBgNV
BAoMB0tleUNvcnAxDDAKBgNVBAsMA01TRDEUMBIGA1UEAwwLYWlkZW5TZXJ2ZXIx
JDAiBgkqhkiG9w0BCQEWFXByYXR0YWlkZW44QGdtYWlsLmNvbTCCAiIwDQYJKoZI
hvcNAQEBBQADggIPADCCAgoCggIBAJxVGXrIqSWUFcwODksVuCeo/FgDnrgDCl6K
T9cDHHt5JuLFk/eSOWEgDnctbcKKPPIadIOU86IqZpvXvVetkHcObhPlNnK4FR8P
d7//xqKPWFerriHf5ovFZ6f8/P+HsUeV2EABYbf0Re4A3/XcfZlWZGVoTxXA1vjU
PiQdafUwZ1X/p+HIFFW/sl3ygAo2TE/CqWvgRfdP0us/GtsSskAO3drXKoTylLA0
6nJLlvza5rttd3r6vEWCHqF3GFSv/qD7hsQ10Xdi0gCXjKlRoq2jUB4NDZImor7F
R35kKeSsgDMZo2165D05iIO18VdE5i2LFz3PIjFMeuUU9Ymo0+ySkQvBUtiI076b
GSXkb/dRRXM4IdTg2TYEfPaFcSKOov89h2ELSMHysSNZY8l80akTb2sURrIq1ULD
J9fXwbGi7q6Fn1/DpdoqMt/+tnocRiGBv2U2251rXF2uTBgdn1P/GysGcGuzA94C
2oRt8tU4MT5Qho0clmP6NzmrfSfGDZA7Txin8dcrX53iXCaS3b8IuKhMC5l7D2bN
nqRY6GDajr/k+aXZEPySH9pVNTikqf1J2XAbRwY0sSyQQV78xDeL4A86new2SyRI
8p1gZZVMZvVt9XQ9GV87W0etR923TgbEiksR6K0yqEQuJ59rSDVHCGt3DNDEQoXw
jN3pRMa7AgMBAAGjggEjMIIBHzAJBgNVHRMEAjAAMCwGCWCGSAGG+EIBDQQfFh1P
cGVuU1NMIEdlbmVyYXRlZCBDZXJ0aWZpY2F0ZTAdBgNVHQ4EFgQUNlcWVXdZOAsJ
N3iOt0QuI50i8vYwgcQGA1UdIwSBvDCBuYAUBCvcZPJY3O/QQZAb1ccOjcvtabKh
gYqkgYcwgYQxCzAJBgNVBAYTAlVTMREwDwYDVQQIDAhtaXNzb3VyaTEMMAoGA1UE
BwwDc3RsMRAwDgYDVQQKDAdLZXlDb3JwMQwwCgYDVQQLDANNU0QxDjAMBgNVBAMM
BWFpZGVuMSQwIgYJKoZIhvcNAQkBFhVwcmF0dGFpZGVuOEBnbWFpbC5jb22CFAD0
A7PdZEidWdvYQy82adHz8FD5MA0GCSqGSIb3DQEBBAUAA4ICAQADd2omOLF5VLEI
0s3RnZ1SJUbjIts10YcprSx+nAvgHAxDKbaigPXgUPkkip+jzo5fQ+3RQcNhF57n
k8sxsL7ehovDc6rJZvsDHJlb30JANfnl2gLM/WwjxxuYsNZC0wJtH9wL/wMAxxeb
zm8+UJ4uSoEOil0aAfbV3GSoxJMg+m4LYQINx+KSARL3iY0oHRfj6ETt9yfueCB8
GmunBGAtxNZ8HOkj4dNJ1yUXRdlpj1QexT7JgDpGNf+99dC44CgZU12j0BQeKwRX
n+TW66SPgw3pgVhFnt5iVMGoYF4V4m5ZngdkkhgwPGKC3oT2LJwLV3uUPYTH1eyE
Z5hS+4zM35RlGTRkf4KBqC8WT1Hru5OfeH6+N0bPMl5KbnMmJBYk+z4lfZuaKM1C
MfCHfhDGWChR4IEwbVxN5356Ffg/EaRpNlpfvOFw1sKN48baGgKQ5Y9a6FaSIsGv
hrxYtppI/JBucShzcYuRVRv5tz8KU+liQVQAFmWZ2WIS/TkRsFzXEMCKc4NCpc8m
mRtIGX94Ub4FmYUgRefDJjruW5ugD8mUUyAOjLOGeZVaNGf2BFI+PGGh8BXNe7Ja
o8qyUUvG22SF/dSiIOTOUbLB3UQXii8VLQloYzxKE6WgT6S5UGhU7rZCq1hXvFUW
lIjWFCHC5mVDL0Y52BXhYSk79VQNrQ==
-----END CERTIFICATE-----
