Certificate:
    Data:
        Version: 3 (0x2)
        Serial Number: 4097 (0x1001)
        Signature Algorithm: md5WithRSAEncryption
        Issuer: C=US, ST=missouri, L=stl, O=KeyCorp, OU=MSD, CN=aiden/emailAddress=prattaiden8@gmail.com
        Validity
            Not Before: Mar 14 20:42:10 2024 GMT
            Not After : Mar 14 20:42:10 2025 GMT
        Subject: C=US, ST=missouri, O=KeyCorp, OU=MSD, CN=aidenClient/emailAddress=prattaiden8@gmail.com
        Subject Public Key Info:
            Public Key Algorithm: rsaEncryption
                Public-Key: (4096 bit)
                Modulus:
                    00:d5:b8:f7:16:70:2b:0d:f1:88:73:e9:d2:27:ca:
                    a0:b3:f0:be:ef:80:56:45:2b:24:fa:50:e6:1f:75:
                    eb:c0:1e:96:78:52:cb:3b:9d:f7:13:d1:c2:6d:ce:
                    24:d0:ff:ae:4e:46:54:3e:00:22:35:dc:8e:a4:ac:
                    8f:aa:d8:6a:e5:da:e5:bd:35:d9:b5:3e:13:94:23:
                    99:38:a1:3f:9e:50:68:4c:bc:2c:5b:e4:6c:03:48:
                    74:2d:f3:70:7e:f8:3e:eb:94:35:57:4d:2b:07:61:
                    d7:ec:6b:44:ba:cf:56:94:90:12:e0:c8:72:68:63:
                    b9:05:fa:38:8d:62:13:d9:27:91:24:4d:3f:9e:0f:
                    22:ab:5e:6b:6a:b9:3c:b1:5b:c6:84:6f:a1:84:ea:
                    5e:0e:15:bc:1b:5b:df:6b:61:1c:30:98:d0:18:ed:
                    98:78:38:39:69:8c:7e:1e:74:25:9b:10:14:0d:8a:
                    6b:d1:11:54:e8:c3:95:08:94:1f:98:b7:ad:d2:a4:
                    f7:93:f4:db:f6:7c:b5:f1:05:01:e6:45:14:b2:4d:
                    f3:28:40:ed:d8:af:c3:d0:36:88:78:e5:67:d0:22:
                    da:15:3b:10:d6:04:96:ed:90:84:d5:52:6c:4f:96:
                    e8:a4:fe:10:cd:bc:2d:5f:4b:0f:44:c3:b1:9d:07:
                    38:3b:4c:d9:cb:91:dd:4b:5e:a9:3f:e1:da:1e:fa:
                    81:ec:d6:8b:d3:57:59:f6:4b:df:b9:69:41:83:3a:
                    62:9e:94:5e:21:9b:32:ea:5b:40:98:0b:81:ff:43:
                    b4:7c:0c:9b:12:da:b6:79:cd:29:a1:6d:1a:b8:17:
                    ec:a2:45:9b:3e:70:94:15:17:2a:64:29:c2:b0:85:
                    b7:ec:46:49:1b:7f:21:60:02:1f:06:ac:22:06:6b:
                    a5:cb:bd:6c:f6:23:eb:c7:95:3f:c2:af:d7:f7:65:
                    c7:40:4a:4f:b4:76:d8:c3:be:01:cd:be:77:2b:1c:
                    96:62:b8:ef:84:32:b2:2f:6c:dc:ba:2e:c9:b7:81:
                    fa:6e:f5:4a:ad:b7:7d:3a:0a:eb:2b:27:53:8d:0b:
                    c2:62:2a:e3:d3:ad:b1:78:ec:8e:c9:b5:a4:76:8d:
                    dc:d2:a0:d4:4e:0f:7c:7f:00:44:95:1f:cd:31:74:
                    9d:f7:02:8e:45:7f:73:76:ee:1c:e9:51:9a:7c:9d:
                    39:94:f4:72:2d:1c:e5:36:f2:40:08:62:cd:0b:3c:
                    a6:c5:90:ea:ba:4d:ba:64:83:69:29:c3:da:54:db:
                    d3:41:b3:5a:8c:de:e6:c5:cb:dc:83:06:34:03:ec:
                    77:d3:88:49:b4:9c:cd:b4:34:7d:94:6f:97:a1:54:
                    91:b1:b9
                Exponent: 65537 (0x10001)
        X509v3 extensions:
            X509v3 Basic Constraints: 
                CA:FALSE
            Netscape Comment: 
                OpenSSL Generated Certificate
            X509v3 Subject Key Identifier: 
                85:43:01:00:F1:5D:CB:A8:18:90:72:2F:F6:92:54:EA:C8:CF:91:EC
            X509v3 Authority Key Identifier: 
                keyid:04:2B:DC:64:F2:58:DC:EF:D0:41:90:1B:D5:C7:0E:8D:CB:ED:69:B2
                DirName:/C=US/ST=missouri/L=stl/O=KeyCorp/OU=MSD/CN=aiden/emailAddress=prattaiden8@gmail.com
                serial:F4:03:B3:DD:64:48:9D:59:DB:D8:43:2F:36:69:D1:F3:F0:50:F9
    Signature Algorithm: md5WithRSAEncryption
    Signature Value:
        78:78:89:14:2e:24:94:b4:0c:d2:32:11:c4:16:43:05:65:c1:
        66:ab:2e:88:1b:49:33:e5:74:d7:75:91:8f:85:09:ce:2a:a3:
        7b:b9:c5:7a:25:f6:60:e5:6d:a7:49:e6:e5:2a:29:fe:fc:60:
        67:d4:91:fe:9e:60:7a:df:2e:4a:c8:80:e9:e9:9e:b6:0b:35:
        d1:c7:03:cc:7b:7e:43:0b:76:de:ba:1e:9a:1f:c3:d9:9e:f0:
        40:c1:33:4a:af:d1:0d:01:84:1f:8f:af:c6:94:a0:d9:23:45:
        8a:af:e0:97:d0:59:7b:a7:30:16:28:1e:fd:87:27:45:1c:53:
        ee:48:22:5b:22:cf:d9:82:f3:16:2d:b9:79:35:d5:cc:6a:36:
        8a:cf:7f:19:f1:cd:96:f7:e9:6c:cc:ee:ef:52:4b:f7:35:29:
        68:d5:7a:4f:4e:da:b4:6f:83:1b:4f:84:70:74:69:09:a5:d7:
        4f:94:67:f5:b0:76:23:3e:31:59:21:e7:3a:3b:46:31:39:96:
        6a:26:24:88:6c:2b:e6:05:33:4e:ec:84:bd:7c:c5:66:d1:e3:
        62:78:df:e1:b4:37:08:c4:65:95:51:d0:c7:01:c9:3a:77:2e:
        9f:b1:e6:a5:9b:57:75:16:9e:c8:74:e6:11:f5:bd:ae:8d:bf:
        3f:14:4c:95:85:99:ec:cc:25:6e:78:e7:d9:23:97:b6:51:23:
        6e:e0:1c:19:6b:3e:54:47:fd:32:2f:6d:53:a9:84:88:a7:d7:
        92:1b:e9:de:a1:15:9c:ec:c5:eb:06:c0:6c:45:de:b6:a8:25:
        1e:b8:ae:59:98:7d:e5:0a:fd:5e:f5:75:19:08:70:8f:0a:8c:
        d1:cc:cb:8b:d7:8f:e2:f5:eb:65:10:39:95:fb:de:b7:92:c6:
        50:b0:ab:1d:b3:06:b9:20:d7:9a:ba:3a:45:65:ff:ba:48:d0:
        cf:21:d5:1b:1b:20:3e:61:6c:31:da:1a:dc:f8:1c:6b:92:04:
        74:27:c1:8b:7b:1a:6b:ea:a4:cb:e6:a5:e7:d0:6a:05:22:0b:
        a9:7b:c0:a3:29:c1:3a:db:97:31:bf:0d:79:53:a8:8f:99:a8:
        b0:fa:a1:59:09:8f:25:1e:0f:cf:cd:28:93:45:ac:55:3f:fb:
        89:31:83:31:1f:09:85:67:9a:56:b0:fb:0b:2c:2d:16:f0:f8:
        f3:70:09:87:af:ed:fd:d1:01:bc:36:e3:e6:37:19:2c:c9:0b:
        d2:f7:05:f1:80:7e:66:30:59:40:55:6b:19:1a:58:ad:92:77:
        86:28:7c:67:7a:51:fe:6b:76:8c:3c:3c:ff:dd:8b:41:26:1d:
        3c:f1:68:67:90:9d:17:56
-----BEGIN CERTIFICATE-----
MIIGojCCBIqgAwIBAgICEAEwDQYJKoZIhvcNAQEEBQAwgYQxCzAJBgNVBAYTAlVT
MREwDwYDVQQIDAhtaXNzb3VyaTEMMAoGA1UEBwwDc3RsMRAwDgYDVQQKDAdLZXlD
b3JwMQwwCgYDVQQLDANNU0QxDjAMBgNVBAMMBWFpZGVuMSQwIgYJKoZIhvcNAQkB
FhVwcmF0dGFpZGVuOEBnbWFpbC5jb20wHhcNMjQwMzE0MjA0MjEwWhcNMjUwMzE0
MjA0MjEwWjB8MQswCQYDVQQGEwJVUzERMA8GA1UECAwIbWlzc291cmkxEDAOBgNV
BAoMB0tleUNvcnAxDDAKBgNVBAsMA01TRDEUMBIGA1UEAwwLYWlkZW5DbGllbnQx
JDAiBgkqhkiG9w0BCQEWFXByYXR0YWlkZW44QGdtYWlsLmNvbTCCAiIwDQYJKoZI
hvcNAQEBBQADggIPADCCAgoCggIBANW49xZwKw3xiHPp0ifKoLPwvu+AVkUrJPpQ
5h9168AelnhSyzud9xPRwm3OJND/rk5GVD4AIjXcjqSsj6rYauXa5b012bU+E5Qj
mTihP55QaEy8LFvkbANIdC3zcH74PuuUNVdNKwdh1+xrRLrPVpSQEuDIcmhjuQX6
OI1iE9knkSRNP54PIqtea2q5PLFbxoRvoYTqXg4VvBtb32thHDCY0BjtmHg4OWmM
fh50JZsQFA2Ka9ERVOjDlQiUH5i3rdKk95P02/Z8tfEFAeZFFLJN8yhA7divw9A2
iHjlZ9Ai2hU7ENYElu2QhNVSbE+W6KT+EM28LV9LD0TDsZ0HODtM2cuR3UteqT/h
2h76gezWi9NXWfZL37lpQYM6Yp6UXiGbMupbQJgLgf9DtHwMmxLatnnNKaFtGrgX
7KJFmz5wlBUXKmQpwrCFt+xGSRt/IWACHwasIgZrpcu9bPYj68eVP8Kv1/dlx0BK
T7R22MO+Ac2+dysclmK474Qysi9s3LouybeB+m71Sq23fToK6ysnU40LwmIq49Ot
sXjsjsm1pHaN3NKg1E4PfH8ARJUfzTF0nfcCjkV/c3buHOlRmnydOZT0ci0c5Tby
QAhizQs8psWQ6rpNumSDaSnD2lTb00GzWoze5sXL3IMGNAPsd9OISbSczbQ0fZRv
l6FUkbG5AgMBAAGjggEjMIIBHzAJBgNVHRMEAjAAMCwGCWCGSAGG+EIBDQQfFh1P
cGVuU1NMIEdlbmVyYXRlZCBDZXJ0aWZpY2F0ZTAdBgNVHQ4EFgQUhUMBAPFdy6gY
kHIv9pJU6sjPkewwgcQGA1UdIwSBvDCBuYAUBCvcZPJY3O/QQZAb1ccOjcvtabKh
gYqkgYcwgYQxCzAJBgNVBAYTAlVTMREwDwYDVQQIDAhtaXNzb3VyaTEMMAoGA1UE
BwwDc3RsMRAwDgYDVQQKDAdLZXlDb3JwMQwwCgYDVQQLDANNU0QxDjAMBgNVBAMM
BWFpZGVuMSQwIgYJKoZIhvcNAQkBFhVwcmF0dGFpZGVuOEBnbWFpbC5jb22CFAD0
A7PdZEidWdvYQy82adHz8FD5MA0GCSqGSIb3DQEBBAUAA4ICAQB4eIkULiSUtAzS
MhHEFkMFZcFmqy6IG0kz5XTXdZGPhQnOKqN7ucV6JfZg5W2nSeblKin+/GBn1JH+
nmB63y5KyIDp6Z62CzXRxwPMe35DC3beuh6aH8PZnvBAwTNKr9ENAYQfj6/GlKDZ
I0WKr+CX0Fl7pzAWKB79hydFHFPuSCJbIs/ZgvMWLbl5NdXMajaKz38Z8c2W9+ls
zO7vUkv3NSlo1XpPTtq0b4MbT4RwdGkJpddPlGf1sHYjPjFZIec6O0YxOZZqJiSI
bCvmBTNO7IS9fMVm0eNieN/htDcIxGWVUdDHAck6dy6fsealm1d1Fp7IdOYR9b2u
jb8/FEyVhZnszCVueOfZI5e2USNu4BwZaz5UR/0yL21TqYSIp9eSG+neoRWc7MXr
BsBsRd62qCUeuK5ZmH3lCv1e9XUZCHCPCozRzMuL14/i9etlEDmV+963ksZQsKsd
swa5INeaujpFZf+6SNDPIdUbGyA+YWwx2hrc+BxrkgR0J8GLexpr6qTL5qXn0GoF
Igupe8CjKcE625cxvw15U6iPmaiw+qFZCY8lHg/PzSiTRaxVP/uJMYMxHwmFZ5pW
sPsLLC0W8PjzcAmHr+390QG8NuPmNxksyQvS9wXxgH5mMFlAVWsZGlitkneGKHxn
elH+a3aMPDz/3YtBJh088WhnkJ0XVg==
-----END CERTIFICATE-----
